(lp0
(iObjectInformation
ObjectInformation
p1
(dp2
S'point_top_left'
p3
(iObjectInformation
Point
p4
(dp5
S'y'
p6
I528
sS'x'
p7
I88
sbsS'centre'
p8
(iObjectInformation
Point
p9
(dp10
g6
F614.5
sg7
F141.5
sbsS'selected'
p11
I00
sS'height'
p12
I173
sS'width'
p13
I107
sS'point_bottom_right'
p14
(iObjectInformation
Point
p15
(dp16
g6
I700
sg7
I194
sbsS'type'
p17
S'person'
p18
sS'id'
p19
I0
sS'point_of_selection'
p20
(iObjectInformation
Point
p21
(dp22
g6
I729
sg7
I147
sbsba(iObjectInformation
ObjectInformation
p23
(dp24
g3
(iObjectInformation
Point
p25
(dp26
g6
I208
sg7
I357
sbsg8
(iObjectInformation
Point
p27
(dp28
g6
F252.0
sg7
F387.5
sbsg11
I00
sg12
I88
sg13
I61
sg14
(iObjectInformation
Point
p29
(dp30
g6
I296
sg7
I417
sbsg17
g18
sg19
I1
sg20
(iObjectInformation
Point
p31
(dp32
g6
I309
sg7
I377
sbsba(iObjectInformation
ObjectInformation
p33
(dp34
g3
(iObjectInformation
Point
p35
(dp36
g6
I142
sg7
I1338
sbsg8
(iObjectInformation
Point
p37
(dp38
g6
F186.0
sg7
F1392.0
sbsg11
I00
sg12
I88
sg13
I108
sg14
(iObjectInformation
Point
p39
(dp40
g6
I230
sg7
I1446
sbsg17
S'car'
p41
sg19
I2
sg20
(iObjectInformation
Point
p42
(dp43
g6
I230
sg7
I1392
sbsba.