(lp0
(iObjectInformation
ObjectInformation
p1
(dp2
S'point_top_left'
p3
(iObjectInformation
Point
p4
(dp5
S'y'
p6
I528
sS'x'
p7
I91
sbsS'width'
p8
I107
sS'selected'
p9
I00
sS'height'
p10
I173
sS'point_bottom_right'
p11
(iObjectInformation
Point
p12
(dp13
g6
I700
sg7
I197
sbsS'centre'
p14
(iObjectInformation
Point
p15
(dp16
g6
F614.5
sg7
F144.5
sbsS'type'
p17
S'person'
p18
sS'id'
p19
I0
sS'point_of_selection'
p20
(iObjectInformation
Point
p21
(dp22
g6
I699
sg7
I159
sbsba(iObjectInformation
ObjectInformation
p23
(dp24
g3
(iObjectInformation
Point
p25
(dp26
g6
I208
sg7
I358
sbsg8
I61
sg9
I00
sg10
I88
sg11
(iObjectInformation
Point
p27
(dp28
g6
I296
sg7
I418
sbsg14
(iObjectInformation
Point
p29
(dp30
g6
F252.0
sg7
F388.5
sbsg17
g18
sg19
I1
sg20
(iObjectInformation
Point
p31
(dp32
g6
I296
sg7
I394
sbsba(iObjectInformation
ObjectInformation
p33
(dp34
g3
(iObjectInformation
Point
p35
(dp36
g6
I142
sg7
I1339
sbsg8
I108
sg9
I01
sg10
I88
sg11
(iObjectInformation
Point
p37
(dp38
g6
I230
sg7
I1447
sbsg14
(iObjectInformation
Point
p39
(dp40
g6
F186.0
sg7
F1393.0
sbsg17
S'car'
p41
sg19
I2
sg20
(iObjectInformation
Point
p42
(dp43
g6
I209
sg7
I1415
sbsba.